(dp0
S'blake_03'
p1
(imap_shape_pairs
Transform
p2
(dp3
S'scale'
p4
cnumpy.core.multiarray
scalar
p5
(cnumpy
dtype
p6
(S'f8'
p7
I0
I1
tp8
Rp9
(I3
S'<'
p10
NNNI-1
I-1
I0
tp11
bS'\xca\x1fu\xca\x1fu\xf2?'
p12
tp13
Rp14
sS'degree'
p15
g5
(g6
(S'i8'
p16
I0
I1
tp17
Rp18
(I3
S'<'
p19
NNNI-1
I-1
I0
tp20
bS'\\\x01\x00\x00\x00\x00\x00\x00'
p21
tp22
Rp23
sS'offset'
p24
cnumpy.core.multiarray
_reconstruct
p25
(cnumpy
ndarray
p26
(I0
tp27
S'b'
p28
tp29
Rp30
(I1
(L2L
tp31
g6
(S'f4'
p32
I0
I1
tp33
Rp34
(I3
S'<'
p35
NNNI-1
I-1
I0
tp36
bI00
S'\x00\x009C\x00\x00\xe4B'
p37
tp38
bsbsS'blake_11'
p39
(imap_shape_pairs
Transform
p40
(dp41
g4
g5
(g9
S'\xb7\xd0\x80%\xbd\xfc\xf1?'
p42
tp43
Rp44
sg15
g5
(g18
S'R\x00\x00\x00\x00\x00\x00\x00'
p45
tp46
Rp47
sg24
g25
(g26
(I0
tp48
g28
tp49
Rp50
(I1
(L2L
tp51
g6
(S'f4'
p52
I0
I1
tp53
Rp54
(I3
S'<'
p55
NNNI-1
I-1
I0
tp56
bI00
S'\x00\x00*C\x00\x00\xe4B'
p57
tp58
bsbsS'blake_10'
p59
(imap_shape_pairs
Transform
p60
(dp61
g4
g5
(g9
S'\xe2(\xfaI\xacy\xf5?'
p62
tp63
Rp64
sg15
g5
(g18
S'\xf3\x00\x00\x00\x00\x00\x00\x00'
p65
tp66
Rp67
sg24
g25
(g26
(I0
tp68
g28
tp69
Rp70
(I1
(L2L
tp71
g6
(S'f4'
p72
I0
I1
tp73
Rp74
(I3
S'<'
p75
NNNI-1
I-1
I0
tp76
bI00
S'\x00\x00fC\x00\x00\xf8B'
p77
tp78
bsbs.