(dp0
S'blake_07'
p1
(imap_shape_pairs
Transform
p2
(dp3
S'scale'
p4
cnumpy.core.multiarray
scalar
p5
(cnumpy
dtype
p6
(S'f8'
p7
I0
I1
tp8
Rp9
(I3
S'<'
p10
NNNI-1
I-1
I0
tp11
bS'9\xf2\xf2Q\xefv\xec?'
p12
tp13
Rp14
sS'degree'
p15
g5
(g6
(S'i8'
p16
I0
I1
tp17
Rp18
(I3
S'<'
p19
NNNI-1
I-1
I0
tp20
bS'\x1a\x01\x00\x00\x00\x00\x00\x00'
p21
tp22
Rp23
sS'offset'
p24
cnumpy.core.multiarray
_reconstruct
p25
(cnumpy
ndarray
p26
(I0
tp27
S'b'
p28
tp29
Rp30
(I1
(L2L
tp31
g6
(S'f4'
p32
I0
I1
tp33
Rp34
(I3
S'<'
p35
NNNI-1
I-1
I0
tp36
bI00
S'\x00\x00\xaeB\x00\x00\x12C'
p37
tp38
bsbs.